target datalayout = "e-m:e-p270:32:32-p271:32:32-p272:64:64-i64:64-i128:128-f80:128-n8:16:32:64-S128"
target triple = "x86_64-pc-linux-gnu"

%class.JVMCIEnv = type { ptr, i8, i8, ptr, i8, i8, ptr, i32, i32, ptr, ptr }
%class.JVMCIObject = type <{ ptr, i8, [7 x i8] }>

; Function Attrs: mustprogress nounwind uwtable
define linkonce_odr hidden { ptr, i8 } @_ZN12HotSpotJVMCI17VMIntrinsicMethod8get_nameEP8JVMCIEnv11JVMCIObject(ptr noundef %0, ptr %1, i8 %2) #1 comdat align 2 {
  %4 = alloca %class.JVMCIObject, align 8
  %5 = alloca %class.JVMCIObject, align 8
  %6 = alloca ptr, align 8
  %7 = alloca %class.JVMCIObject, align 8
  %8 = getelementptr inbounds { ptr, i8 }, ptr %5, i32 0, i32 0
  store ptr %1, ptr %8, align 8
  %9 = getelementptr inbounds { ptr, i8 }, ptr %5, i32 0, i32 1
  store i8 %2, ptr %9, align 8
  store ptr %0, ptr %6, align 8
  %10 = load ptr, ptr %6, align 8
  call void @llvm.memcpy.p0.p0.i64(ptr align 8 %7, ptr align 8 %5, i64 16, i1 false)
  %11 = getelementptr inbounds { ptr, i8 }, ptr %7, i32 0, i32 0
  %12 = load ptr, ptr %11, align 8
  %13 = getelementptr inbounds { ptr, i8 }, ptr %7, i32 0, i32 1
  %14 = load i8, ptr %13, align 8
  %15 = call noundef ptr @_ZN12HotSpotJVMCI7resolveE11JVMCIObject(ptr %12, i8 %14)
  %16 = call noundef ptr @_ZN12HotSpotJVMCI17VMIntrinsicMethod4nameEP8JVMCIEnvP7oopDesc(ptr noundef %10, ptr noundef %15)
  %17 = call { ptr, i8 } @_ZN12HotSpotJVMCI4wrapEP7oopDesc(ptr noundef %16)
  %18 = getelementptr inbounds { ptr, i8 }, ptr %4, i32 0, i32 0
  %19 = extractvalue { ptr, i8 } %17, 0
  store ptr %19, ptr %18, align 8
  %20 = getelementptr inbounds { ptr, i8 }, ptr %4, i32 0, i32 1
  %21 = extractvalue { ptr, i8 } %17, 1
  store i8 %21, ptr %20, align 8
  %22 = load { ptr, i8 }, ptr %4, align 8
  ret { ptr, i8 } %22
}

; Function Attrs: mustprogress nounwind uwtable
define linkonce_odr hidden noundef zeroext i1 @_ZN8JVMCIEnv10is_hotspotEv(ptr noundef nonnull align 8 dereferenceable(64) %0) #1 comdat align 2 {
  %2 = alloca ptr, align 8
  store ptr %0, ptr %2, align 8
  %3 = load ptr, ptr %2, align 8
  %4 = getelementptr inbounds %class.JVMCIEnv, ptr %3, i32 0, i32 4
  %5 = load i8, ptr %4, align 8
  %6 = trunc i8 %5 to i1
  ret i1 %6
}

; Function Attrs: mustprogress nounwind uwtable
define hidden { ptr, i8 } @_ZN8JVMCIEnv26get_VMIntrinsicMethod_nameE11JVMCIObject(ptr noundef nonnull align 8 dereferenceable(64) %0, ptr %1, i8 %2) #1 align 2 {
  %4 = alloca %class.JVMCIObject, align 8
  %5 = alloca %class.JVMCIObject, align 8
  %6 = alloca ptr, align 8
  %7 = alloca %class.JVMCIObject, align 8
  %8 = alloca %class.JVMCIObject, align 8
  %9 = getelementptr inbounds { ptr, i8 }, ptr %5, i32 0, i32 0
  store ptr %1, ptr %9, align 8
  %10 = getelementptr inbounds { ptr, i8 }, ptr %5, i32 0, i32 1
  store i8 %2, ptr %10, align 8
  store ptr %0, ptr %6, align 8
  %11 = load ptr, ptr %6, align 8
  %12 = call noundef zeroext i1 @_ZN8JVMCIEnv10is_hotspotEv(ptr noundef nonnull align 8 dereferenceable(64) %11)
  br i1 %12, label %13, label %23

13:                                               ; preds = %3
  call void @llvm.memcpy.p0.p0.i64(ptr align 8 %7, ptr align 8 %5, i64 16, i1 false)
  %14 = getelementptr inbounds { ptr, i8 }, ptr %7, i32 0, i32 0
  %15 = load ptr, ptr %14, align 8
  %16 = getelementptr inbounds { ptr, i8 }, ptr %7, i32 0, i32 1
  %17 = load i8, ptr %16, align 8
  %18 = call { ptr, i8 } @_ZN12HotSpotJVMCI17VMIntrinsicMethod8get_nameEP8JVMCIEnv11JVMCIObject(ptr noundef %11, ptr %15, i8 %17)
  %19 = getelementptr inbounds { ptr, i8 }, ptr %4, i32 0, i32 0
  %20 = extractvalue { ptr, i8 } %18, 0
  store ptr %20, ptr %19, align 8
  %21 = getelementptr inbounds { ptr, i8 }, ptr %4, i32 0, i32 1
  %22 = extractvalue { ptr, i8 } %18, 1
  store i8 %22, ptr %21, align 8
  br label %33

23:                                               ; preds = %3
  call void @llvm.memcpy.p0.p0.i64(ptr align 8 %8, ptr align 8 %5, i64 16, i1 false)
  %24 = getelementptr inbounds { ptr, i8 }, ptr %8, i32 0, i32 0
  %25 = load ptr, ptr %24, align 8
  %26 = getelementptr inbounds { ptr, i8 }, ptr %8, i32 0, i32 1
  %27 = load i8, ptr %26, align 8
  %28 = call { ptr, i8 } @_ZN8JNIJVMCI17VMIntrinsicMethod8get_nameEP8JVMCIEnv11JVMCIObject(ptr noundef %11, ptr %25, i8 %27)
  %29 = getelementptr inbounds { ptr, i8 }, ptr %4, i32 0, i32 0
  %30 = extractvalue { ptr, i8 } %28, 0
  store ptr %30, ptr %29, align 8
  %31 = getelementptr inbounds { ptr, i8 }, ptr %4, i32 0, i32 1
  %32 = extractvalue { ptr, i8 } %28, 1
  store i8 %32, ptr %31, align 8
  br label %33

33:                                               ; preds = %23, %13
  %34 = load { ptr, i8 }, ptr %4, align 8
  ret { ptr, i8 } %34
}